; Function Attrs: mustprogress uwtable
define void @_Z22_gmx_sel_evaluate_rootP18gmx_sel_evaluate_tRKSt10shared_ptrIN3gmx20SelectionTreeElementEEP15gmx_ana_index_t(ptr noundef %0, ptr nocapture noundef nonnull readonly align 8 dereferenceable(16) %1, ptr nocapture readnone %2) #2 {
  %4 = load ptr, ptr %1, align 8
  %5 = getelementptr inbounds i8, ptr %4, i64 48
  %6 = load i32, ptr %5, align 8
  %7 = icmp eq i32 %6, 0
  br i1 %7, label %15, label %8

8:                                                ; preds = %3
  %9 = getelementptr inbounds i8, ptr %4, i64 96
  %10 = load ptr, ptr %9, align 8
  %11 = getelementptr inbounds i8, ptr %10, i64 32
  %12 = load ptr, ptr %11, align 8
  %.not = icmp eq ptr %12, null
  br i1 %.not, label %15, label %13

13:                                               ; preds = %8
  %14 = icmp slt i32 %6, 0
  %spec.select = select i1 %14, ptr null, ptr %5
  tail call void %12(ptr noundef %0, ptr noundef nonnull align 8 dereferenceable(16) %9, ptr noundef %spec.select)
  br label %15

15:                                               ; preds = %3, %8, %13
  ret void
}